; Function Attrs: nounwind uwtable
define zeroext range(i8 0, 2) i8 @l_Lean_isPrivateNameFromImportedModule(ptr noundef %0, ptr noundef %1) local_unnamed_addr #0 {
  %3 = ptrtoint ptr %1 to i64
  %4 = and i64 %3, 1
  %.not = icmp eq i64 %4, 0
  br i1 %.not, label %5, label %lean_inc.exit

5:                                                ; preds = %2
  %.val.i = load i32, ptr %1, align 4, !tbaa !8
  %6 = icmp sgt i32 %.val.i, 0
  br i1 %6, label %7, label %9, !prof !11

7:                                                ; preds = %5
  %8 = add nuw i32 %.val.i, 1
  store i32 %8, ptr %1, align 4, !tbaa !8
  br label %lean_inc.exit

9:                                                ; preds = %5
  %.not.i27 = icmp eq i32 %.val.i, 0
  br i1 %.not.i27, label %lean_inc.exit, label %10

10:                                               ; preds = %9
  tail call void @lean_inc_ref_cold(ptr noundef nonnull %1) #3
  br label %lean_inc.exit

lean_inc.exit:                                    ; preds = %10, %9, %7, %2
  %11 = tail call ptr @lean_private_to_user_name(ptr noundef %1) #3
  %12 = ptrtoint ptr %11 to i64
  %13 = and i64 %12, 1
  %.not.i28 = icmp eq i64 %13, 0
  br i1 %.not.i28, label %17, label %14

14:                                               ; preds = %lean_inc.exit
  %15 = lshr i64 %12, 1
  %16 = trunc i64 %15 to i32
  br label %lean_obj_tag.exit

17:                                               ; preds = %lean_inc.exit
  %18 = getelementptr i8, ptr %11, i64 4
  %.val.i29 = load i32, ptr %18, align 4
  %19 = lshr i32 %.val.i29, 24
  br label %lean_obj_tag.exit

lean_obj_tag.exit:                                ; preds = %14, %17
  %.0.i = phi i32 [ %16, %14 ], [ %19, %17 ]
  %20 = icmp eq i32 %.0.i, 0
  br i1 %20, label %21, label %29

21:                                               ; preds = %lean_obj_tag.exit
  br i1 %.not, label %22, label %lean_dec.exit19

22:                                               ; preds = %21
  %23 = load i32, ptr %1, align 4, !tbaa !8
  %24 = icmp sgt i32 %23, 1
  br i1 %24, label %25, label %27, !prof !11

25:                                               ; preds = %22
  %26 = add nsw i32 %23, -1
  store i32 %26, ptr %1, align 4, !tbaa !8
  br label %lean_dec.exit19

27:                                               ; preds = %22
  %.not.i = icmp eq i32 %23, 0
  br i1 %.not.i, label %lean_dec.exit19, label %28

28:                                               ; preds = %27
  tail call void @lean_dec_ref_cold(ptr noundef nonnull %1) #3
  br label %lean_dec.exit19

29:                                               ; preds = %lean_obj_tag.exit
  %30 = getelementptr i8, ptr %11, i64 8
  %.val = load ptr, ptr %30, align 8, !tbaa !4
  %31 = ptrtoint ptr %.val to i64
  %32 = and i64 %31, 1
  %.not33 = icmp eq i64 %32, 0
  br i1 %.not33, label %33, label %lean_inc.exit20

33:                                               ; preds = %29
  %.val.i30 = load i32, ptr %.val, align 4, !tbaa !8
  %34 = icmp sgt i32 %.val.i30, 0
  br i1 %34, label %35, label %37, !prof !11

35:                                               ; preds = %33
  %36 = add nuw i32 %.val.i30, 1
  store i32 %36, ptr %.val, align 4, !tbaa !8
  br label %lean_inc.exit20

37:                                               ; preds = %33
  %.not.i31 = icmp eq i32 %.val.i30, 0
  br i1 %.not.i31, label %lean_inc.exit20, label %38

38:                                               ; preds = %37
  tail call void @lean_inc_ref_cold(ptr noundef nonnull %.val) #3
  br label %lean_inc.exit20

lean_inc.exit20:                                  ; preds = %38, %37, %35, %29
  br i1 %.not.i28, label %39, label %lean_dec.exit18

39:                                               ; preds = %lean_inc.exit20
  %40 = load i32, ptr %11, align 4, !tbaa !8
  %41 = icmp sgt i32 %40, 1
  br i1 %41, label %42, label %44, !prof !11

42:                                               ; preds = %39
  %43 = add nsw i32 %40, -1
  store i32 %43, ptr %11, align 4, !tbaa !8
  br label %lean_dec.exit18

44:                                               ; preds = %39
  %.not.i21 = icmp eq i32 %40, 0
  br i1 %.not.i21, label %lean_dec.exit18, label %45

45:                                               ; preds = %44
  tail call void @lean_dec_ref_cold(ptr noundef nonnull %11) #3
  br label %lean_dec.exit18

lean_dec.exit18:                                  ; preds = %45, %44, %42, %lean_inc.exit20
  %46 = tail call ptr @l_Lean_Environment_mainModule(ptr noundef %0) #3
  %47 = load ptr, ptr @l_Lean_privateHeader, align 8, !tbaa !4
  %48 = tail call ptr @l_Lean_Name_append(ptr noundef %47, ptr noundef %46) #3
  %49 = tail call ptr @l_Lean_Name_num___override(ptr noundef %48, ptr noundef nonnull inttoptr (i64 1 to ptr)) #3
  %50 = tail call ptr @l_Lean_privateToUserName(ptr noundef %.val) #3
  %51 = tail call ptr @l_Lean_Name_append(ptr noundef %49, ptr noundef %50) #3
  %52 = tail call zeroext i8 @lean_name_eq(ptr noundef %51, ptr noundef %1) #3
  br i1 %.not, label %53, label %lean_dec.exit17

53:                                               ; preds = %lean_dec.exit18
  %54 = load i32, ptr %1, align 4, !tbaa !8
  %55 = icmp sgt i32 %54, 1
  br i1 %55, label %56, label %58, !prof !11

56:                                               ; preds = %53
  %57 = add nsw i32 %54, -1
  store i32 %57, ptr %1, align 4, !tbaa !8
  br label %lean_dec.exit17

58:                                               ; preds = %53
  %.not.i23 = icmp eq i32 %54, 0
  br i1 %.not.i23, label %lean_dec.exit17, label %59

59:                                               ; preds = %58
  tail call void @lean_dec_ref_cold(ptr noundef nonnull %1) #3
  br label %lean_dec.exit17

lean_dec.exit17:                                  ; preds = %59, %58, %56, %lean_dec.exit18
  %60 = ptrtoint ptr %51 to i64
  %61 = and i64 %60, 1
  %.not35 = icmp eq i64 %61, 0
  br i1 %.not35, label %62, label %lean_dec.exit

62:                                               ; preds = %lean_dec.exit17
  %63 = load i32, ptr %51, align 4, !tbaa !8
  %64 = icmp sgt i32 %63, 1
  br i1 %64, label %65, label %67, !prof !11

65:                                               ; preds = %62
  %66 = add nsw i32 %63, -1
  store i32 %66, ptr %51, align 4, !tbaa !8
  br label %lean_dec.exit

67:                                               ; preds = %62
  %.not.i25 = icmp eq i32 %63, 0
  br i1 %.not.i25, label %lean_dec.exit, label %68

68:                                               ; preds = %67
  tail call void @lean_dec_ref_cold(ptr noundef nonnull %51) #3
  br label %lean_dec.exit

lean_dec.exit:                                    ; preds = %68, %67, %65, %lean_dec.exit17
  %69 = icmp eq i8 %52, 0
  %. = zext i1 %69 to i8
  br label %lean_dec.exit19

lean_dec.exit19:                                  ; preds = %21, %25, %27, %28, %lean_dec.exit
  %.0 = phi i8 [ %., %lean_dec.exit ], [ 0, %28 ], [ 0, %27 ], [ 0, %25 ], [ 0, %21 ]
  ret i8 %.0
}